; ModuleID = '4/2135.c'
source_filename = "4/2135.c"
target datalayout = "e-m:e-p270:32:32-p271:32:32-p272:64:64-i64:64-f80:128-n8:16:32:64-S128"
target triple = "x86_64-pc-linux-gnu"

@.str = private unnamed_addr constant [6 x i8] c"%d %d\00", align 1
@.str.1 = private unnamed_addr constant [3 x i8] c"%d\00", align 1
@.str.2 = private unnamed_addr constant [4 x i8] c"%d\0A\00", align 1

; Function Attrs: noinline nounwind uwtable
define dso_local void @main() #0 {
  %1 = alloca [200 x [200 x i32]], align 16
  %2 = alloca i32, align 4
  %3 = alloca i32, align 4
  %4 = alloca i32, align 4
  %5 = alloca i32, align 4
  %6 = alloca i32, align 4
  %7 = call i32 (i8*, ...) @__isoc99_scanf(i8* getelementptr inbounds ([6 x i8], [6 x i8]* @.str, i64 0, i64 0), i32* %2, i32* %3)
  store i32 0, i32* %4, align 4
  br label %8

8:                                                ; preds = %29, %0
  %9 = load i32, i32* %4, align 4
  %10 = load i32, i32* %2, align 4
  %11 = icmp slt i32 %9, %10
  br i1 %11, label %12, label %32

12:                                               ; preds = %8
  store i32 0, i32* %5, align 4
  br label %13

13:                                               ; preds = %25, %12
  %14 = load i32, i32* %5, align 4
  %15 = load i32, i32* %3, align 4
  %16 = icmp slt i32 %14, %15
  br i1 %16, label %17, label %28

17:                                               ; preds = %13
  %18 = load i32, i32* %4, align 4
  %19 = sext i32 %18 to i64
  %20 = getelementptr inbounds [200 x [200 x i32]], [200 x [200 x i32]]* %1, i64 0, i64 %19
  %21 = load i32, i32* %5, align 4
  %22 = sext i32 %21 to i64
  %23 = getelementptr inbounds [200 x i32], [200 x i32]* %20, i64 0, i64 %22
  %24 = call i32 (i8*, ...) @__isoc99_scanf(i8* getelementptr inbounds ([3 x i8], [3 x i8]* @.str.1, i64 0, i64 0), i32* %23)
  br label %25

25:                                               ; preds = %17
  %26 = load i32, i32* %5, align 4
  %27 = add nsw i32 %26, 1
  store i32 %27, i32* %5, align 4
  br label %13

28:                                               ; preds = %13
  br label %29

29:                                               ; preds = %28
  %30 = load i32, i32* %4, align 4
  %31 = add nsw i32 %30, 1
  store i32 %31, i32* %4, align 4
  br label %8

32:                                               ; preds = %8
  store i32 0, i32* %4, align 4
  store i32 0, i32* %5, align 4
  store i32 0, i32* %6, align 4
  br label %33

33:                                               ; preds = %74, %32
  %34 = load i32, i32* %6, align 4
  %35 = load i32, i32* %2, align 4
  %36 = load i32, i32* %3, align 4
  %37 = add nsw i32 %35, %36
  %38 = sub nsw i32 %37, 2
  %39 = icmp sle i32 %34, %38
  br i1 %39, label %40, label %77

40:                                               ; preds = %33
  store i32 0, i32* %4, align 4
  br label %41

41:                                               ; preds = %70, %40
  %42 = load i32, i32* %4, align 4
  %43 = load i32, i32* %2, align 4
  %44 = icmp slt i32 %42, %43
  br i1 %44, label %45, label %73

45:                                               ; preds = %41
  store i32 0, i32* %5, align 4
  br label %46

46:                                               ; preds = %66, %45
  %47 = load i32, i32* %5, align 4
  %48 = load i32, i32* %3, align 4
  %49 = icmp slt i32 %47, %48
  br i1 %49, label %50, label %69

50:                                               ; preds = %46
  %51 = load i32, i32* %4, align 4
  %52 = load i32, i32* %5, align 4
  %53 = add nsw i32 %51, %52
  %54 = load i32, i32* %6, align 4
  %55 = icmp eq i32 %53, %54
  br i1 %55, label %56, label %65

56:                                               ; preds = %50
  %57 = load i32, i32* %4, align 4
  %58 = sext i32 %57 to i64
  %59 = getelementptr inbounds [200 x [200 x i32]], [200 x [200 x i32]]* %1, i64 0, i64 %58
  %60 = load i32, i32* %5, align 4
  %61 = sext i32 %60 to i64
  %62 = getelementptr inbounds [200 x i32], [200 x i32]* %59, i64 0, i64 %61
  %63 = load i32, i32* %62, align 4
  %64 = call i32 (i8*, ...) @printf(i8* getelementptr inbounds ([4 x i8], [4 x i8]* @.str.2, i64 0, i64 0), i32 %63)
  br label %65

65:                                               ; preds = %56, %50
  br label %66

66:                                               ; preds = %65
  %67 = load i32, i32* %5, align 4
  %68 = add nsw i32 %67, 1
  store i32 %68, i32* %5, align 4
  br label %46

69:                                               ; preds = %46
  br label %70

70:                                               ; preds = %69
  %71 = load i32, i32* %4, align 4
  %72 = add nsw i32 %71, 1
  store i32 %72, i32* %4, align 4
  br label %41

73:                                               ; preds = %41
  br label %74

74:                                               ; preds = %73
  %75 = load i32, i32* %6, align 4
  %76 = add nsw i32 %75, 1
  store i32 %76, i32* %6, align 4
  br label %33

77:                                               ; preds = %33
  ret void
}

declare dso_local i32 @__isoc99_scanf(i8*, ...) #1

declare dso_local i32 @printf(i8*, ...) #1


!llvm.module.flags = !{!0}
!llvm.ident = !{!1}

!0 = !{i32 1, !"wchar_size", i32 4}
!1 = !{!"clang version 10.0.0-4ubuntu1 "}
